target datalayout = "e-m:e-p270:32:32-p271:32:32-p272:64:64-i64:64-i128:128-f80:128-n8:16:32:64-S128"
target triple = "x86_64-pc-linux-gnu"

%class.Moves = type { i32, i32, i32, i32, i32, i32, i32, i32, i32, [13 x %"struct.Moves::trackType"], ptr, [13 x [4 x %struct.movePlyType]], ptr, [13 x [4 x i32]], [13 x %"class.std::__cxx11::basic_string"], [13 x [4 x %"struct.Moves::moveStatType"]], [13 x [4 x %"struct.Moves::moveStatType"]], [13 x [4 x %"struct.Moves::moveStatsType"]], [13 x [4 x %"struct.Moves::moveStatsType"]], %"struct.Moves::moveStatsType", %"struct.Moves::moveStatsType", [16 x { i64, i64 }] }
%"struct.Moves::trackType" = type { i32, i32, [4 x i32], [4 x i32], %struct.trickDataType, [4 x %struct.extCard], [4 x i32], [4 x [4 x i32]], [4 x i32] }
%struct.trickDataType = type { [4 x i32], i32, i32, i32, i32, i32 }
%struct.extCard = type { i32, i32, i32 }
%struct.movePlyType = type { [14 x %struct.moveType], i32, i32 }
%struct.moveType = type { i32, i32, i32, i32 }
%"class.std::__cxx11::basic_string" = type { %"struct.std::__cxx11::basic_string<char>::_Alloc_hider", i64, %union.anon }
%"struct.std::__cxx11::basic_string<char>::_Alloc_hider" = type { ptr }
%union.anon = type { i64, [8 x i8] }
%"struct.Moves::moveStatType" = type { i32, i32, i32, i32 }
%"struct.Moves::moveStatsType" = type { i32, [13 x %"struct.Moves::moveStatType"] }
%struct.pos = type { [4 x [4 x i16]], [4 x i16], [4 x [4 x i8]], [4 x i32], [50 x [4 x i16]], [50 x i32], [50 x %struct.moveType], i32, i32, [4 x %struct.highCardType], [4 x %struct.highCardType] }
%struct.highCardType = type { i32, i32 }

; Function Attrs: mustprogress nounwind uwtable
define void @_ZN5Moves18WeightAllocNTVoid3ERK3pos(ptr noundef nonnull align 8 dereferenceable(39992) %0, ptr noundef nonnull align 4 dereferenceable(1544) %1) #5 align 2 {
  %3 = alloca ptr, align 8
  %4 = alloca ptr, align 8
  %5 = alloca i32, align 4
  %6 = alloca i32, align 4
  %7 = alloca i32, align 4
  store ptr %0, ptr %3, align 8
  store ptr %1, ptr %4, align 8
  %8 = load ptr, ptr %3, align 8
  %9 = load ptr, ptr %4, align 8
  %10 = getelementptr inbounds nuw %struct.pos, ptr %9, i32 0, i32 2
  %11 = getelementptr inbounds nuw %class.Moves, ptr %8, i32 0, i32 2
  %12 = load i32, ptr %11, align 8
  %13 = sext i32 %12 to i64
  %14 = getelementptr inbounds [4 x [4 x i8]], ptr %10, i64 0, i64 %13
  %15 = getelementptr inbounds nuw %class.Moves, ptr %8, i32 0, i32 6
  %16 = load i32, ptr %15, align 8
  %17 = sext i32 %16 to i64
  %18 = getelementptr inbounds [4 x i8], ptr %14, i64 0, i64 %17
  %19 = load i8, ptr %18, align 1
  %20 = zext i8 %19 to i32
  store i32 %20, ptr %5, align 4
  %21 = load i32, ptr %5, align 4
  %22 = shl i32 %21, 6
  %23 = sdiv i32 %22, 27
  store i32 %23, ptr %6, align 4
  %24 = load i32, ptr %5, align 4
  %25 = icmp eq i32 %24, 2
  br i1 %25, label %26, label %41

26:                                               ; preds = %2
  %27 = load ptr, ptr %4, align 8
  %28 = getelementptr inbounds nuw %struct.pos, ptr %27, i32 0, i32 10
  %29 = getelementptr inbounds nuw %class.Moves, ptr %8, i32 0, i32 6
  %30 = load i32, ptr %29, align 8
  %31 = sext i32 %30 to i64
  %32 = getelementptr inbounds [4 x %struct.highCardType], ptr %28, i64 0, i64 %31
  %33 = getelementptr inbounds nuw %struct.highCardType, ptr %32, i32 0, i32 1
  %34 = load i32, ptr %33, align 4
  %35 = getelementptr inbounds nuw %class.Moves, ptr %8, i32 0, i32 2
  %36 = load i32, ptr %35, align 8
  %37 = icmp eq i32 %34, %36
  br i1 %37, label %38, label %41

38:                                               ; preds = %26
  %39 = load i32, ptr %6, align 4
  %40 = sub nsw i32 %39, 6
  store i32 %40, ptr %6, align 4
  br label %60

41:                                               ; preds = %26, %2
  %42 = load i32, ptr %5, align 4
  %43 = icmp eq i32 %42, 1
  br i1 %43, label %44, label %59

44:                                               ; preds = %41
  %45 = load ptr, ptr %4, align 8
  %46 = getelementptr inbounds nuw %struct.pos, ptr %45, i32 0, i32 9
  %47 = getelementptr inbounds nuw %class.Moves, ptr %8, i32 0, i32 6
  %48 = load i32, ptr %47, align 8
  %49 = sext i32 %48 to i64
  %50 = getelementptr inbounds [4 x %struct.highCardType], ptr %46, i64 0, i64 %49
  %51 = getelementptr inbounds nuw %struct.highCardType, ptr %50, i32 0, i32 1
  %52 = load i32, ptr %51, align 4
  %53 = getelementptr inbounds nuw %class.Moves, ptr %8, i32 0, i32 2
  %54 = load i32, ptr %53, align 8
  %55 = icmp eq i32 %52, %54
  br i1 %55, label %56, label %59

56:                                               ; preds = %44
  %57 = load i32, ptr %6, align 4
  %58 = sub nsw i32 %57, 8
  store i32 %58, ptr %6, align 4
  br label %59

59:                                               ; preds = %56, %44, %41
  br label %60

60:                                               ; preds = %59, %38
  %61 = getelementptr inbounds nuw %class.Moves, ptr %8, i32 0, i32 8
  %62 = load i32, ptr %61, align 8
  store i32 %62, ptr %7, align 4
  br label %63

63:                                               ; preds = %85, %60
  %64 = load i32, ptr %7, align 4
  %65 = getelementptr inbounds nuw %class.Moves, ptr %8, i32 0, i32 7
  %66 = load i32, ptr %65, align 4
  %67 = icmp slt i32 %64, %66
  br i1 %67, label %68, label %88

68:                                               ; preds = %63
  %69 = getelementptr inbounds nuw %class.Moves, ptr %8, i32 0, i32 12
  %70 = load ptr, ptr %69, align 8
  %71 = load i32, ptr %7, align 4
  %72 = sext i32 %71 to i64
  %73 = getelementptr inbounds %struct.moveType, ptr %70, i64 %72
  %74 = getelementptr inbounds nuw %struct.moveType, ptr %73, i32 0, i32 1
  %75 = load i32, ptr %74, align 4
  %76 = sub nsw i32 0, %75
  %77 = load i32, ptr %6, align 4
  %78 = add nsw i32 %76, %77
  %79 = getelementptr inbounds nuw %class.Moves, ptr %8, i32 0, i32 12
  %80 = load ptr, ptr %79, align 8
  %81 = load i32, ptr %7, align 4
  %82 = sext i32 %81 to i64
  %83 = getelementptr inbounds %struct.moveType, ptr %80, i64 %82
  %84 = getelementptr inbounds nuw %struct.moveType, ptr %83, i32 0, i32 3
  store i32 %78, ptr %84, align 4
  br label %85

85:                                               ; preds = %68
  %86 = load i32, ptr %7, align 4
  %87 = add nsw i32 %86, 1
  store i32 %87, ptr %7, align 4
  br label %63, !llvm.loop !42

88:                                               ; preds = %63
  ret void
}